target datalayout = "e-m:e-p270:32:32-p271:32:32-p272:64:64-i64:64-i128:128-f80:128-n8:16:32:64-S128"
target triple = "x86_64-pc-linux-gnu"

%"class.base::FileEnumerator::FileInfo" = type { %struct.stat, %"class.base::FilePath" }
%struct.stat = type { i64, i64, i64, i32, i32, i32, i32, i64, i64, i64, i64, %struct.timespec, %struct.timespec, %struct.timespec, [3 x i64] }
%struct.timespec = type { i64, i64 }
%"class.base::FilePath" = type { %"class.std::__cxx11::basic_string" }
%"class.std::__cxx11::basic_string" = type { %"struct.std::__cxx11::basic_string<char>::_Alloc_hider", i64, %union.anon }
%"struct.std::__cxx11::basic_string<char>::_Alloc_hider" = type { ptr }
%union.anon = type { i64, [8 x i8] }
%"class.base::FileEnumerator" = type { %"class.std::vector", i64, %"class.base::FilePath", i8, i32, %"class.std::__cxx11::basic_string", %"class.std::stack" }
%"class.std::vector" = type { %"struct.std::_Vector_base" }
%"struct.std::_Vector_base" = type { %"struct.std::_Vector_base<base::FileEnumerator::FileInfo, std::allocator<base::FileEnumerator::FileInfo>>::_Vector_impl" }
%"struct.std::_Vector_base<base::FileEnumerator::FileInfo, std::allocator<base::FileEnumerator::FileInfo>>::_Vector_impl" = type { %"struct.std::_Vector_base<base::FileEnumerator::FileInfo, std::allocator<base::FileEnumerator::FileInfo>>::_Vector_impl_data" }
%"struct.std::_Vector_base<base::FileEnumerator::FileInfo, std::allocator<base::FileEnumerator::FileInfo>>::_Vector_impl_data" = type { ptr, ptr, ptr }
%"class.std::stack" = type { %"class.std::deque" }
%"class.std::deque" = type { %"class.std::_Deque_base" }
%"class.std::_Deque_base" = type { %"struct.std::_Deque_base<base::FilePath, std::allocator<base::FilePath>>::_Deque_impl" }
%"struct.std::_Deque_base<base::FilePath, std::allocator<base::FilePath>>::_Deque_impl" = type { %"struct.std::_Deque_base<base::FilePath, std::allocator<base::FilePath>>::_Deque_impl_data" }
%"struct.std::_Deque_base<base::FilePath, std::allocator<base::FilePath>>::_Deque_impl_data" = type { ptr, i64, %"struct.std::_Deque_iterator", %"struct.std::_Deque_iterator" }
%"struct.std::_Deque_iterator" = type { ptr, ptr, ptr, ptr }

; Function Attrs: inlinehint mustprogress uwtable
define linkonce_odr void @_ZN4base14FileEnumerator8FileInfoC2ERKS1_(ptr noundef nonnull align 8 dereferenceable(176) %0, ptr noundef nonnull align 8 dereferenceable(176) %1) unnamed_addr #7 comdat align 2 {
  %3 = alloca ptr, align 8
  %4 = alloca ptr, align 8
  store ptr %0, ptr %3, align 8, !tbaa !3
  store ptr %1, ptr %4, align 8, !tbaa !3
  %5 = load ptr, ptr %3, align 8
  %6 = getelementptr inbounds nuw %"class.base::FileEnumerator::FileInfo", ptr %5, i32 0, i32 0
  %7 = load ptr, ptr %4, align 8, !tbaa !3
  %8 = getelementptr inbounds nuw %"class.base::FileEnumerator::FileInfo", ptr %7, i32 0, i32 0
  call void @llvm.memcpy.p0.p0.i64(ptr align 8 %6, ptr align 8 %8, i64 144, i1 false), !tbaa.struct !76
  %9 = getelementptr inbounds nuw %"class.base::FileEnumerator::FileInfo", ptr %5, i32 0, i32 1
  %10 = load ptr, ptr %4, align 8, !tbaa !3
  %11 = getelementptr inbounds nuw %"class.base::FileEnumerator::FileInfo", ptr %10, i32 0, i32 1
  call void @_ZN4base8FilePathC1ERKS0_(ptr noundef nonnull align 8 dereferenceable(32) %9, ptr noundef nonnull align 8 dereferenceable(32) %11)
  ret void
}

; Function Attrs: mustprogress nounwind uwtable
define linkonce_odr noundef nonnull align 8 dereferenceable(176) ptr @_ZNKSt6vectorIN4base14FileEnumerator8FileInfoESaIS2_EEixEm(ptr noundef nonnull align 8 dereferenceable(24) %0, i64 noundef %1) #3 comdat align 2 {
  %3 = alloca ptr, align 8
  %4 = alloca i64, align 8
  store ptr %0, ptr %3, align 8, !tbaa !44
  store i64 %1, ptr %4, align 8, !tbaa !59
  %5 = load ptr, ptr %3, align 8
  %6 = getelementptr inbounds nuw %"struct.std::_Vector_base", ptr %5, i32 0, i32 0
  %7 = getelementptr inbounds nuw %"struct.std::_Vector_base<base::FileEnumerator::FileInfo, std::allocator<base::FileEnumerator::FileInfo>>::_Vector_impl_data", ptr %6, i32 0, i32 0
  %8 = load ptr, ptr %7, align 8, !tbaa !50
  %9 = load i64, ptr %4, align 8, !tbaa !59
  %10 = getelementptr inbounds nuw %"class.base::FileEnumerator::FileInfo", ptr %8, i64 %9
  ret ptr %10
}

; Function Attrs: mustprogress uwtable
define void @_ZNK4base14FileEnumerator7GetInfoEv(ptr dead_on_unwind noalias writable sret(%"class.base::FileEnumerator::FileInfo") align 8 %0, ptr noundef nonnull align 8 dereferenceable(184) %1) #0 align 2 {
  %3 = alloca ptr, align 8
  %4 = alloca ptr, align 8
  store ptr %0, ptr %3, align 8
  store ptr %1, ptr %4, align 8, !tbaa !20
  %5 = load ptr, ptr %4, align 8
  %6 = getelementptr inbounds nuw %"class.base::FileEnumerator", ptr %5, i32 0, i32 0
  %7 = getelementptr inbounds nuw %"class.base::FileEnumerator", ptr %5, i32 0, i32 1
  %8 = load i64, ptr %7, align 8, !tbaa !27
  %9 = call noundef nonnull align 8 dereferenceable(176) ptr @_ZNKSt6vectorIN4base14FileEnumerator8FileInfoESaIS2_EEixEm(ptr noundef nonnull align 8 dereferenceable(24) %6, i64 noundef %8) #16
  call void @_ZN4base14FileEnumerator8FileInfoC2ERKS1_(ptr noundef nonnull align 8 dereferenceable(176) %0, ptr noundef nonnull align 8 dereferenceable(176) %9)
  ret void
}