; Function Attrs: mustprogress uwtable
define void @_ZNK4base14FileEnumerator7GetInfoEv(ptr dead_on_unwind noalias writable sret(%"class.base::FileEnumerator::FileInfo") align 8 initializes((0, 144)) %0, ptr noundef nonnull readonly align 8 captures(none) dereferenceable(184) %1) local_unnamed_addr #0 align 2 {
  %3 = getelementptr inbounds nuw i8, ptr %1, i64 24
  %4 = load i64, ptr %3, align 8, !tbaa !47
  %5 = load ptr, ptr %1, align 8, !tbaa !41
  %6 = getelementptr inbounds nuw %"class.base::FileEnumerator::FileInfo", ptr %5, i64 %4
  tail call void @llvm.memcpy.p0.p0.i64(ptr noundef nonnull align 8 dereferenceable(176) %0, ptr noundef nonnull align 8 dereferenceable(176) %6, i64 144, i1 false), !tbaa.struct !63
  %7 = getelementptr inbounds nuw i8, ptr %0, i64 144
  %8 = getelementptr inbounds nuw i8, ptr %6, i64 144
  tail call void @_ZN4base8FilePathC1ERKS0_(ptr noundef nonnull align 8 dereferenceable(32) %7, ptr noundef nonnull align 8 dereferenceable(32) %8)
  ret void
}